; Function Attrs: mustprogress uwtable
define void @_ZN19ColoringRulesDialog26on_clearToolButton_clickedEv(ptr noundef nonnull align 8 dereferenceable(200) %0) local_unnamed_addr #0 align 2 {
  %2 = alloca %class.QModelIndex, align 8
  %3 = alloca %class.QModelIndex, align 8
  %4 = getelementptr inbounds i8, ptr %0, i64 88
  store i32 -1, ptr %2, align 8
  %5 = getelementptr inbounds i8, ptr %2, i64 4
  store i32 -1, ptr %5, align 4
  %6 = getelementptr inbounds i8, ptr %2, i64 8
  call void @llvm.memset.p0.i64(ptr noundef nonnull align 8 dereferenceable(16) %6, i8 0, i64 16, i1 false)
  %7 = call noundef i32 @_ZNK18ColoringRulesModel8rowCountERK11QModelIndex(ptr noundef nonnull align 8 dereferenceable(88) %4, ptr noundef nonnull align 8 dereferenceable(24) %2)
  store i32 -1, ptr %3, align 8
  %8 = getelementptr inbounds i8, ptr %3, i64 4
  store i32 -1, ptr %8, align 4
  %9 = getelementptr inbounds i8, ptr %3, i64 8
  call void @llvm.memset.p0.i64(ptr noundef nonnull align 8 dereferenceable(16) %9, i8 0, i64 16, i1 false)
  %10 = call noundef zeroext i1 @_ZN18ColoringRulesModel10removeRowsEiiRK11QModelIndex(ptr noundef nonnull align 8 dereferenceable(88) %4, i32 noundef 0, i32 noundef %7, ptr noundef nonnull align 8 dereferenceable(24) %3)
  ret void
}